target datalayout = "e-m:e-p270:32:32-p271:32:32-p272:64:64-i64:64-i128:128-f80:128-n8:16:32:64-S128"
target triple = "x86_64-pc-linux-gnu"

%class.ObjectMonitor = type { %class.markWord, %class.WeakHandle, [48 x i8], ptr, i64, [48 x i8], ptr, i64, ptr, ptr, ptr, ptr, i32, i32, ptr, i32, i32 }
%class.markWord = type { i64 }
%class.WeakHandle = type { ptr }
%class.stringStream = type <{ %class.outputStream, ptr, i64, i64, i8, [48 x i8], [7 x i8] }>
%class.outputStream = type { ptr, i32, i8, i32, i64, %class.TimeStamp, ptr, i64 }
%class.TimeStamp = type { i64 }
%"struct.Atomic::LoadImpl.14" = type { i8 }
%"struct.Atomic::PlatformLoad.15" = type { i8 }
%"struct.Atomic::PlatformLoad.26" = type { i8 }
%"struct.Atomic::LoadImpl.35" = type { i8 }

@.str.18 = private unnamed_addr constant [86 x i8] c"is_busy: waiters=%d, contentions=%d, owner=0x%016lx, cxq=0x%016lx, EntryList=0x%016lx\00", align 1

; Function Attrs: mustprogress nounwind uwtable
define linkonce_odr hidden noundef ptr @_ZNK6Atomic12PlatformLoadILm8EEclIPvEET_PVKS4_(ptr noundef nonnull align 1 dereferenceable(1) %0, ptr noundef %1) #1 comdat align 2 {
  %3 = alloca ptr, align 8
  %4 = alloca ptr, align 8
  store ptr %0, ptr %3, align 8
  store ptr %1, ptr %4, align 8
  %5 = load ptr, ptr %4, align 8
  %6 = load volatile ptr, ptr %5, align 8
  ret ptr %6
}

; Function Attrs: mustprogress nounwind uwtable
define linkonce_odr hidden noundef i32 @_ZNK6Atomic12PlatformLoadILm4EEclIiEET_PVKS3_(ptr noundef nonnull align 1 dereferenceable(1) %0, ptr noundef %1) #1 comdat align 2 {
  %3 = alloca ptr, align 8
  %4 = alloca ptr, align 8
  store ptr %0, ptr %3, align 8
  store ptr %1, ptr %4, align 8
  %5 = load ptr, ptr %4, align 8
  %6 = load volatile i32, ptr %5, align 4
  ret i32 %6
}

; Function Attrs: mustprogress nounwind uwtable
define linkonce_odr hidden noundef ptr @_ZNK6Atomic8LoadImplIPvNS_12PlatformLoadILm8EEEvEclEPVKS1_(ptr noundef nonnull align 1 dereferenceable(1) %0, ptr noundef %1) #1 comdat align 2 {
  %3 = alloca ptr, align 8
  %4 = alloca ptr, align 8
  %5 = alloca %"struct.Atomic::PlatformLoad.26", align 1
  store ptr %0, ptr %3, align 8
  store ptr %1, ptr %4, align 8
  %6 = load ptr, ptr %4, align 8
  %7 = call noundef ptr @_ZNK6Atomic12PlatformLoadILm8EEclIPvEET_PVKS4_(ptr noundef nonnull align 1 dereferenceable(1) %5, ptr noundef %6)
  ret ptr %7
}

; Function Attrs: mustprogress nounwind uwtable
define linkonce_odr hidden noundef i32 @_ZNK6Atomic8LoadImplIiNS_12PlatformLoadILm4EEEvEclEPVKi(ptr noundef nonnull align 1 dereferenceable(1) %0, ptr noundef %1) #1 comdat align 2 {
  %3 = alloca ptr, align 8
  %4 = alloca ptr, align 8
  %5 = alloca %"struct.Atomic::PlatformLoad.15", align 1
  store ptr %0, ptr %3, align 8
  store ptr %1, ptr %4, align 8
  %6 = load ptr, ptr %4, align 8
  %7 = call noundef i32 @_ZNK6Atomic12PlatformLoadILm4EEclIiEET_PVKS3_(ptr noundef nonnull align 1 dereferenceable(1) %5, ptr noundef %6)
  ret i32 %7
}

; Function Attrs: mustprogress nounwind uwtable
define linkonce_odr hidden noundef ptr @_ZN6Atomic4loadIPvEET_PVKS2_(ptr noundef %0) #1 comdat align 2 {
  %2 = alloca ptr, align 8
  %3 = alloca %"struct.Atomic::LoadImpl.35", align 1
  store ptr %0, ptr %2, align 8
  %4 = load ptr, ptr %2, align 8
  %5 = call noundef ptr @_ZNK6Atomic8LoadImplIPvNS_12PlatformLoadILm8EEEvEclEPVKS1_(ptr noundef nonnull align 1 dereferenceable(1) %3, ptr noundef %4)
  ret ptr %5
}

; Function Attrs: mustprogress nounwind uwtable
define linkonce_odr hidden noundef i32 @_ZN6Atomic4loadIiEET_PVKS1_(ptr noundef %0) #1 comdat align 2 {
  %2 = alloca ptr, align 8
  %3 = alloca %"struct.Atomic::LoadImpl.14", align 1
  store ptr %0, ptr %2, align 8
  %4 = load ptr, ptr %2, align 8
  %5 = call noundef i32 @_ZNK6Atomic8LoadImplIiNS_12PlatformLoadILm4EEEvEclEPVKi(ptr noundef nonnull align 1 dereferenceable(1) %3, ptr noundef %4)
  ret i32 %5
}

; Function Attrs: mustprogress nounwind uwtable
define linkonce_odr hidden noundef ptr @_ZNK12stringStream4baseEv(ptr noundef nonnull align 8 dereferenceable(129) %0) #1 comdat align 2 {
  %2 = alloca ptr, align 8
  store ptr %0, ptr %2, align 8
  %3 = load ptr, ptr %2, align 8
  %4 = getelementptr inbounds %class.stringStream, ptr %3, i32 0, i32 1
  %5 = load ptr, ptr %4, align 8
  ret ptr %5
}

; Function Attrs: mustprogress nounwind uwtable
define linkonce_odr hidden noundef ptr @_ZNK13ObjectMonitor9owner_rawEv(ptr noundef nonnull align 8 dereferenceable(200) %0) #1 comdat align 2 {
  %2 = alloca ptr, align 8
  store ptr %0, ptr %2, align 8
  %3 = load ptr, ptr %2, align 8
  %4 = getelementptr inbounds %class.ObjectMonitor, ptr %3, i32 0, i32 3
  %5 = call noundef ptr @_ZN6Atomic4loadIPvEET_PVKS2_(ptr noundef %4)
  ret ptr %5
}

; Function Attrs: mustprogress nounwind uwtable
define linkonce_odr hidden noundef i64 @_Z3p2iPVKv(ptr noundef %0) #1 comdat {
  %2 = alloca ptr, align 8
  store ptr %0, ptr %2, align 8
  %3 = load ptr, ptr %2, align 8
  %4 = ptrtoint ptr %3 to i64
  ret i64 %4
}

; Function Attrs: mustprogress nounwind uwtable
define linkonce_odr hidden noundef zeroext i1 @_ZNK13ObjectMonitor24owner_is_DEFLATER_MARKEREv(ptr noundef nonnull align 8 dereferenceable(200) %0) #1 comdat align 2 {
  %2 = alloca ptr, align 8
  store ptr %0, ptr %2, align 8
  %3 = load ptr, ptr %2, align 8
  %4 = call noundef ptr @_ZNK13ObjectMonitor9owner_rawEv(ptr noundef nonnull align 8 dereferenceable(200) %3)
  %5 = icmp eq ptr %4, inttoptr (i64 2 to ptr)
  ret i1 %5
}

; Function Attrs: mustprogress nounwind uwtable
define linkonce_odr hidden noundef i32 @_ZNK13ObjectMonitor11contentionsEv(ptr noundef nonnull align 8 dereferenceable(200) %0) #1 comdat align 2 {
  %2 = alloca ptr, align 8
  store ptr %0, ptr %2, align 8
  %3 = load ptr, ptr %2, align 8
  %4 = getelementptr inbounds %class.ObjectMonitor, ptr %3, i32 0, i32 13
  %5 = call noundef i32 @_ZN6Atomic4loadIiEET_PVKS1_(ptr noundef %4)
  ret i32 %5
}

; Function Attrs: mustprogress nounwind uwtable
define hidden noundef ptr @_ZN13ObjectMonitor17is_busy_to_stringEP12stringStream(ptr noundef nonnull align 8 dereferenceable(200) %0, ptr noundef %1) #1 align 2 {
  %3 = alloca ptr, align 8
  %4 = alloca ptr, align 8
  store ptr %0, ptr %3, align 8
  store ptr %1, ptr %4, align 8
  %5 = load ptr, ptr %3, align 8
  %6 = load ptr, ptr %4, align 8
  %7 = getelementptr inbounds %class.ObjectMonitor, ptr %5, i32 0, i32 15
  %8 = load volatile i32, ptr %7, align 8
  %9 = call noundef i32 @_ZNK13ObjectMonitor11contentionsEv(ptr noundef nonnull align 8 dereferenceable(200) %5)
  %10 = icmp sgt i32 %9, 0
  br i1 %10, label %11, label %13

11:                                               ; preds = %2
  %12 = call noundef i32 @_ZNK13ObjectMonitor11contentionsEv(ptr noundef nonnull align 8 dereferenceable(200) %5)
  br label %14

13:                                               ; preds = %2
  br label %14

14:                                               ; preds = %13, %11
  %15 = phi i32 [ %12, %11 ], [ 0, %13 ]
  %16 = call noundef zeroext i1 @_ZNK13ObjectMonitor24owner_is_DEFLATER_MARKEREv(ptr noundef nonnull align 8 dereferenceable(200) %5)
  br i1 %16, label %17, label %19

17:                                               ; preds = %14
  %18 = call noundef i64 @_Z3p2iPVKv(ptr noundef null)
  br label %22

19:                                               ; preds = %14
  %20 = call noundef ptr @_ZNK13ObjectMonitor9owner_rawEv(ptr noundef nonnull align 8 dereferenceable(200) %5)
  %21 = call noundef i64 @_Z3p2iPVKv(ptr noundef %20)
  br label %22

22:                                               ; preds = %19, %17
  %23 = phi i64 [ %18, %17 ], [ %21, %19 ]
  %24 = getelementptr inbounds %class.ObjectMonitor, ptr %5, i32 0, i32 9
  %25 = load volatile ptr, ptr %24, align 8
  %26 = call noundef i64 @_Z3p2iPVKv(ptr noundef %25)
  %27 = getelementptr inbounds %class.ObjectMonitor, ptr %5, i32 0, i32 8
  %28 = load volatile ptr, ptr %27, align 8
  %29 = call noundef i64 @_Z3p2iPVKv(ptr noundef %28)
  call void (ptr, ptr, ...) @_ZN12outputStream5printEPKcz(ptr noundef nonnull align 8 dereferenceable(56) %6, ptr noundef @.str.18, i32 noundef %8, i32 noundef %15, i64 noundef %23, i64 noundef %26, i64 noundef %29)
  %30 = load ptr, ptr %4, align 8
  %31 = call noundef ptr @_ZNK12stringStream4baseEv(ptr noundef nonnull align 8 dereferenceable(129) %30)
  ret ptr %31
}