; Function Attrs: mustprogress nounwind uwtable
define hidden noundef ptr @_ZN13ObjectMonitor17is_busy_to_stringEP12stringStream(ptr noundef nonnull align 8 dereferenceable(200) %0, ptr noundef %1) local_unnamed_addr #0 align 2 {
  %3 = getelementptr inbounds i8, ptr %0, i64 192
  %4 = load volatile i32, ptr %3, align 8
  %5 = getelementptr inbounds i8, ptr %0, i64 180
  %6 = load volatile i32, ptr %5, align 4
  %7 = icmp sgt i32 %6, 0
  br i1 %7, label %8, label %10

8:                                                ; preds = %2
  %9 = load volatile i32, ptr %5, align 4
  br label %10

10:                                               ; preds = %2, %8
  %11 = phi i32 [ %9, %8 ], [ 0, %2 ]
  %12 = getelementptr inbounds i8, ptr %0, i64 64
  %13 = load volatile ptr, ptr %12, align 8
  %14 = icmp eq ptr %13, inttoptr (i64 2 to ptr)
  br i1 %14, label %18, label %15

15:                                               ; preds = %10
  %16 = load volatile ptr, ptr %12, align 8
  %17 = ptrtoint ptr %16 to i64
  br label %18

18:                                               ; preds = %10, %15
  %19 = phi i64 [ %17, %15 ], [ 0, %10 ]
  %20 = getelementptr inbounds i8, ptr %0, i64 152
  %21 = load volatile ptr, ptr %20, align 8
  %22 = ptrtoint ptr %21 to i64
  %23 = getelementptr inbounds i8, ptr %0, i64 144
  %24 = load volatile ptr, ptr %23, align 8
  %25 = ptrtoint ptr %24 to i64
  tail call void (ptr, ptr, ...) @_ZN12outputStream5printEPKcz(ptr noundef nonnull align 8 dereferenceable(56) %1, ptr noundef nonnull @.str.18, i32 noundef %4, i32 noundef %11, i64 noundef %19, i64 noundef %22, i64 noundef %25) #12
  %26 = getelementptr inbounds i8, ptr %1, i64 56
  %27 = load ptr, ptr %26, align 8
  ret ptr %27
}